target datalayout = "e-m:e-p270:32:32-p271:32:32-p272:64:64-i64:64-i128:128-f80:128-n8:16:32:64-S128"
target triple = "x86_64-pc-linux-gnu"

%struct.JLI_List_ = type { ptr, i64, i64 }

@.str = private unnamed_addr constant [7 x i8] c"malloc\00", align 1

; Function Attrs: nounwind uwtable
define ptr @JLI_MemAlloc(i64 noundef %0) #0 {
  %2 = alloca i64, align 8
  %3 = alloca ptr, align 8
  store i64 %0, ptr %2, align 8
  %4 = load i64, ptr %2, align 8
  %5 = call noalias ptr @malloc(i64 noundef %4) #9
  store ptr %5, ptr %3, align 8
  %6 = load ptr, ptr %3, align 8
  %7 = icmp eq ptr %6, null
  br i1 %7, label %8, label %9

8:                                                ; preds = %1
  call void @perror(ptr noundef @.str)
  call void @exit(i32 noundef 1) #10
  unreachable

9:                                                ; preds = %1
  %10 = load ptr, ptr %3, align 8
  ret ptr %10
}

; Function Attrs: nounwind uwtable
define hidden ptr @JLI_List_join(ptr noundef %0, i8 noundef signext %1) #0 {
  %3 = alloca ptr, align 8
  %4 = alloca i8, align 1
  %5 = alloca i64, align 8
  %6 = alloca i64, align 8
  %7 = alloca ptr, align 8
  %8 = alloca ptr, align 8
  %9 = alloca i64, align 8
  store ptr %0, ptr %3, align 8
  store i8 %1, ptr %4, align 1
  store i64 0, ptr %5, align 8
  store i64 1, ptr %6, align 8
  br label %10

10:                                               ; preds = %27, %2
  %11 = load i64, ptr %5, align 8
  %12 = load ptr, ptr %3, align 8
  %13 = getelementptr inbounds %struct.JLI_List_, ptr %12, i32 0, i32 1
  %14 = load i64, ptr %13, align 8
  %15 = icmp ult i64 %11, %14
  br i1 %15, label %16, label %30

16:                                               ; preds = %10
  %17 = load ptr, ptr %3, align 8
  %18 = getelementptr inbounds %struct.JLI_List_, ptr %17, i32 0, i32 0
  %19 = load ptr, ptr %18, align 8
  %20 = load i64, ptr %5, align 8
  %21 = getelementptr inbounds ptr, ptr %19, i64 %20
  %22 = load ptr, ptr %21, align 8
  %23 = call i64 @strlen(ptr noundef %22) #13
  %24 = add i64 %23, 1
  %25 = load i64, ptr %6, align 8
  %26 = add i64 %25, %24
  store i64 %26, ptr %6, align 8
  br label %27

27:                                               ; preds = %16
  %28 = load i64, ptr %5, align 8
  %29 = add i64 %28, 1
  store i64 %29, ptr %5, align 8
  br label %10, !llvm.loop !11

30:                                               ; preds = %10
  %31 = load i64, ptr %6, align 8
  %32 = call ptr @JLI_MemAlloc(i64 noundef %31)
  store ptr %32, ptr %7, align 8
  store i64 0, ptr %5, align 8
  %33 = load ptr, ptr %7, align 8
  store ptr %33, ptr %8, align 8
  br label %34

34:                                               ; preds = %66, %30
  %35 = load i64, ptr %5, align 8
  %36 = load ptr, ptr %3, align 8
  %37 = getelementptr inbounds %struct.JLI_List_, ptr %36, i32 0, i32 1
  %38 = load i64, ptr %37, align 8
  %39 = icmp ult i64 %35, %38
  br i1 %39, label %40, label %69

40:                                               ; preds = %34
  %41 = load ptr, ptr %3, align 8
  %42 = getelementptr inbounds %struct.JLI_List_, ptr %41, i32 0, i32 0
  %43 = load ptr, ptr %42, align 8
  %44 = load i64, ptr %5, align 8
  %45 = getelementptr inbounds ptr, ptr %43, i64 %44
  %46 = load ptr, ptr %45, align 8
  %47 = call i64 @strlen(ptr noundef %46) #13
  store i64 %47, ptr %9, align 8
  %48 = load i64, ptr %5, align 8
  %49 = icmp ugt i64 %48, 0
  br i1 %49, label %50, label %54

50:                                               ; preds = %40
  %51 = load i8, ptr %4, align 1
  %52 = load ptr, ptr %8, align 8
  %53 = getelementptr inbounds i8, ptr %52, i32 1
  store ptr %53, ptr %8, align 8
  store i8 %51, ptr %52, align 1
  br label %54

54:                                               ; preds = %50, %40
  %55 = load ptr, ptr %8, align 8
  %56 = load ptr, ptr %3, align 8
  %57 = getelementptr inbounds %struct.JLI_List_, ptr %56, i32 0, i32 0
  %58 = load ptr, ptr %57, align 8
  %59 = load i64, ptr %5, align 8
  %60 = getelementptr inbounds ptr, ptr %58, i64 %59
  %61 = load ptr, ptr %60, align 8
  %62 = load i64, ptr %9, align 8
  call void @llvm.memcpy.p0.p0.i64(ptr align 1 %55, ptr align 1 %61, i64 %62, i1 false)
  %63 = load i64, ptr %9, align 8
  %64 = load ptr, ptr %8, align 8
  %65 = getelementptr inbounds i8, ptr %64, i64 %63
  store ptr %65, ptr %8, align 8
  br label %66

66:                                               ; preds = %54
  %67 = load i64, ptr %5, align 8
  %68 = add i64 %67, 1
  store i64 %68, ptr %5, align 8
  br label %34, !llvm.loop !12

69:                                               ; preds = %34
  %70 = load ptr, ptr %8, align 8
  store i8 0, ptr %70, align 1
  %71 = load ptr, ptr %7, align 8
  ret ptr %71
}