; Function Attrs: nounwind uwtable
define hidden noalias noundef ptr @JLI_List_join(ptr nocapture noundef readonly %0, i8 noundef signext %1) local_unnamed_addr #0 {
  %3 = getelementptr inbounds i8, ptr %0, i64 8
  %4 = load i64, ptr %3, align 8
  %.not32 = icmp eq i64 %4, 0
  br i1 %.not32, label %._crit_edge.thread, label %.lr.ph

.lr.ph:                                           ; preds = %2
  %5 = load ptr, ptr %0, align 8
  br label %6

6:                                                ; preds = %.lr.ph, %6
  %.027 = phi i64 [ 0, %.lr.ph ], [ %12, %6 ]
  %.02526 = phi i64 [ 1, %.lr.ph ], [ %11, %6 ]
  %7 = getelementptr inbounds ptr, ptr %5, i64 %.027
  %8 = load ptr, ptr %7, align 8
  %9 = tail call i64 @strlen(ptr noundef nonnull dereferenceable(1) %8) #22
  %10 = add i64 %.02526, 1
  %11 = add i64 %10, %9
  %12 = add nuw i64 %.027, 1
  %exitcond.not = icmp eq i64 %12, %4
  br i1 %exitcond.not, label %._crit_edge, label %6, !llvm.loop !11

._crit_edge:                                      ; preds = %6
  %13 = tail call noalias ptr @malloc(i64 noundef %11) #17
  %14 = icmp eq ptr %13, null
  br i1 %14, label %17, label %.lr.ph30

._crit_edge.thread:                               ; preds = %2
  %15 = tail call noalias dereferenceable_or_null(1) ptr @malloc(i64 noundef 1) #17
  %16 = icmp eq ptr %15, null
  br i1 %16, label %17, label %JLI_MemAlloc.exit._crit_edge

17:                                               ; preds = %._crit_edge.thread, %._crit_edge
  tail call void @perror(ptr noundef nonnull @.str) #18
  tail call void @exit(i32 noundef 1) #19
  unreachable

.lr.ph30:                                         ; preds = %._crit_edge, %JLI_MemAlloc.exit
  %.129 = phi i64 [ %26, %JLI_MemAlloc.exit ], [ 0, %._crit_edge ]
  %.02328 = phi ptr [ %25, %JLI_MemAlloc.exit ], [ %13, %._crit_edge ]
  %18 = load ptr, ptr %0, align 8
  %19 = getelementptr inbounds ptr, ptr %18, i64 %.129
  %20 = load ptr, ptr %19, align 8
  %21 = tail call i64 @strlen(ptr noundef nonnull dereferenceable(1) %20) #22
  %.not = icmp eq i64 %.129, 0
  br i1 %.not, label %JLI_MemAlloc.exit, label %22

22:                                               ; preds = %.lr.ph30
  %23 = getelementptr inbounds i8, ptr %.02328, i64 1
  store i8 %1, ptr %.02328, align 1
  %.pre = load ptr, ptr %0, align 8
  %.phi.trans.insert = getelementptr inbounds ptr, ptr %.pre, i64 %.129
  %.pre35 = load ptr, ptr %.phi.trans.insert, align 8
  br label %JLI_MemAlloc.exit

JLI_MemAlloc.exit:                                ; preds = %22, %.lr.ph30
  %24 = phi ptr [ %.pre35, %22 ], [ %20, %.lr.ph30 ]
  %.124 = phi ptr [ %23, %22 ], [ %.02328, %.lr.ph30 ]
  tail call void @llvm.memcpy.p0.p0.i64(ptr align 1 %.124, ptr align 1 %24, i64 %21, i1 false)
  %25 = getelementptr inbounds i8, ptr %.124, i64 %21
  %26 = add nuw i64 %.129, 1
  %27 = load i64, ptr %3, align 8
  %28 = icmp ult i64 %26, %27
  br i1 %28, label %.lr.ph30, label %JLI_MemAlloc.exit._crit_edge, !llvm.loop !12

JLI_MemAlloc.exit._crit_edge:                     ; preds = %JLI_MemAlloc.exit, %._crit_edge.thread
  %29 = phi ptr [ %15, %._crit_edge.thread ], [ %13, %JLI_MemAlloc.exit ]
  %.023.lcssa = phi ptr [ %15, %._crit_edge.thread ], [ %25, %JLI_MemAlloc.exit ]
  store i8 0, ptr %.023.lcssa, align 1
  ret ptr %29
}